target datalayout = "e-m:e-p270:32:32-p271:32:32-p272:64:64-i64:64-i128:128-f80:128-n8:16:32:64-S128"
target triple = "x86_64-pc-linux-gnu"

; Function Attrs: nounwind uwtable
define internal i32 @zueci_utf16le_u(ptr noundef %0, i32 noundef %1, i32 noundef %2, ptr noundef %3) #0 {
  %5 = alloca i32, align 4
  %6 = alloca ptr, align 8
  %7 = alloca i32, align 4
  %8 = alloca i32, align 4
  %9 = alloca ptr, align 8
  %10 = alloca i16, align 2
  %11 = alloca i16, align 2
  store ptr %0, ptr %6, align 8
  store i32 %1, ptr %7, align 4
  store i32 %2, ptr %8, align 4
  store ptr %3, ptr %9, align 8
  %12 = load i32, ptr %7, align 4
  %13 = icmp ult i32 %12, 2
  br i1 %13, label %14, label %15

14:                                               ; preds = %4
  store i32 0, ptr %5, align 4
  br label %79

15:                                               ; preds = %4
  %16 = load ptr, ptr %6, align 8
  %17 = getelementptr inbounds i8, ptr %16, i64 1
  %18 = load i8, ptr %17, align 1
  %19 = zext i8 %18 to i16
  %20 = zext i16 %19 to i32
  %21 = shl i32 %20, 8
  %22 = load ptr, ptr %6, align 8
  %23 = getelementptr inbounds i8, ptr %22, i64 0
  %24 = load i8, ptr %23, align 1
  %25 = zext i8 %24 to i32
  %26 = or i32 %21, %25
  %27 = trunc i32 %26 to i16
  store i16 %27, ptr %10, align 2
  %28 = load i16, ptr %10, align 2
  %29 = zext i16 %28 to i32
  %30 = icmp slt i32 %29, 55296
  br i1 %30, label %35, label %31

31:                                               ; preds = %15
  %32 = load i16, ptr %10, align 2
  %33 = zext i16 %32 to i32
  %34 = icmp sgt i32 %33, 57343
  br i1 %34, label %35, label %39

35:                                               ; preds = %31, %15
  %36 = load i16, ptr %10, align 2
  %37 = zext i16 %36 to i32
  %38 = load ptr, ptr %9, align 8
  store i32 %37, ptr %38, align 4
  store i32 2, ptr %5, align 4
  br label %79

39:                                               ; preds = %31
  %40 = load i16, ptr %10, align 2
  %41 = zext i16 %40 to i32
  %42 = icmp sge i32 %41, 56320
  br i1 %42, label %46, label %43

43:                                               ; preds = %39
  %44 = load i32, ptr %7, align 4
  %45 = icmp ult i32 %44, 4
  br i1 %45, label %46, label %47

46:                                               ; preds = %43, %39
  store i32 0, ptr %5, align 4
  br label %79

47:                                               ; preds = %43
  %48 = load ptr, ptr %6, align 8
  %49 = getelementptr inbounds i8, ptr %48, i64 3
  %50 = load i8, ptr %49, align 1
  %51 = zext i8 %50 to i16
  %52 = zext i16 %51 to i32
  %53 = shl i32 %52, 8
  %54 = load ptr, ptr %6, align 8
  %55 = getelementptr inbounds i8, ptr %54, i64 2
  %56 = load i8, ptr %55, align 1
  %57 = zext i8 %56 to i32
  %58 = or i32 %53, %57
  %59 = trunc i32 %58 to i16
  store i16 %59, ptr %11, align 2
  %60 = load i16, ptr %11, align 2
  %61 = zext i16 %60 to i32
  %62 = icmp slt i32 %61, 56320
  br i1 %62, label %67, label %63

63:                                               ; preds = %47
  %64 = load i16, ptr %11, align 2
  %65 = zext i16 %64 to i32
  %66 = icmp sgt i32 %65, 57343
  br i1 %66, label %67, label %68

67:                                               ; preds = %63, %47
  store i32 0, ptr %5, align 4
  br label %79

68:                                               ; preds = %63
  %69 = load i16, ptr %10, align 2
  %70 = zext i16 %69 to i32
  %71 = sub nsw i32 %70, 55296
  %72 = shl i32 %71, 10
  %73 = load i16, ptr %11, align 2
  %74 = zext i16 %73 to i32
  %75 = sub nsw i32 %74, 56320
  %76 = or i32 %72, %75
  %77 = add i32 65536, %76
  %78 = load ptr, ptr %9, align 8
  store i32 %77, ptr %78, align 4
  store i32 4, ptr %5, align 4
  br label %79

79:                                               ; preds = %68, %67, %46, %35, %14
  %80 = load i32, ptr %5, align 4
  ret i32 %80
}