; Function Attrs: mustprogress nofree norecurse nosync nounwind willreturn memory(argmem: readwrite) uwtable
define internal noundef i32 @zueci_utf16le_u(ptr nocapture noundef readonly %0, i32 noundef %1, i32 %2, ptr nocapture noundef writeonly %3) #6 {
  %5 = icmp ult i32 %1, 2
  br i1 %5, label %32, label %6

6:                                                ; preds = %4
  %7 = getelementptr inbounds i8, ptr %0, i64 1
  %8 = load i8, ptr %7, align 1
  %9 = zext i8 %8 to i32
  %10 = shl nuw nsw i32 %9, 8
  %11 = load i8, ptr %0, align 1
  %12 = zext i8 %11 to i32
  %13 = or disjoint i32 %10, %12
  %14 = add nsw i32 %10, -57344
  %or.cond = icmp ult i32 %14, -2048
  br i1 %or.cond, label %.sink.split, label %15

15:                                               ; preds = %6
  %16 = icmp ugt i32 %13, 56319
  %17 = icmp ult i32 %1, 4
  %or.cond4 = or i1 %17, %16
  br i1 %or.cond4, label %32, label %18

18:                                               ; preds = %15
  %19 = getelementptr inbounds i8, ptr %0, i64 3
  %20 = load i8, ptr %19, align 1
  %21 = zext i8 %20 to i32
  %22 = shl nuw nsw i32 %21, 8
  %23 = add nsw i32 %22, -57344
  %or.cond7 = icmp ult i32 %23, -1024
  br i1 %or.cond7, label %32, label %24

24:                                               ; preds = %18
  %25 = getelementptr inbounds i8, ptr %0, i64 2
  %26 = load i8, ptr %25, align 1
  %27 = zext i8 %26 to i32
  %28 = or disjoint i32 %22, %27
  %29 = shl nuw nsw i32 %13, 10
  %30 = add nsw i32 %29, -56613888
  %31 = add nuw nsw i32 %30, %28
  br label %.sink.split

.sink.split:                                      ; preds = %6, %24
  %.sink = phi i32 [ %31, %24 ], [ %13, %6 ]
  %.0.ph = phi i32 [ 4, %24 ], [ 2, %6 ]
  store i32 %.sink, ptr %3, align 4
  br label %32

32:                                               ; preds = %.sink.split, %18, %15, %4
  %.0 = phi i32 [ 0, %4 ], [ 0, %15 ], [ 0, %18 ], [ %.0.ph, %.sink.split ]
  ret i32 %.0
}